(lp0
(lp1
(lp2
F0.0
aF0.0
aF0.0
aF10.0
aa(lp3
F1.0
aF0.0
aF0.0
aF100.0
aaa(lp4
(lp5
F0.005
aF0.09534625892455922
aF0.0
aF10.0
aa(lp6
F0.9995
aF-0.009534625892455923
aF0.0
aF100.0
aaa(lp7
(lp8
F0.01821865794184506
aF0.18982577062242253
aF0.0
aF10.0
aa(lp9
F0.9981781342058156
aF-0.018982577062242253
aF0.0
aF100.0
aaa(lp10
(lp11
F0.03949161026619044
aF0.2825890849238511
aF0.0
aF10.0
aa(lp12
F0.9960508389733811
aF-0.02825890849238511
aF0.0
aF100.0
aaa(lp13
(lp14
F0.06854220614889991
aF0.37282493953322093
aF0.0
aF10.0
aa(lp15
F0.9931457793851102
aF-0.037282493953322095
aF0.0
aF100.0
aaa(lp16
(lp17
F0.10499229726886847
aF0.459778751882872
aF0.0
aF10.0
aa(lp18
F0.9895007702731133
aF-0.0459778751882872
aF0.0
aF100.0
aaa(lp19
(lp20
F0.1483765680549278
aF0.5427676419887418
aF0.0
aF10.0
aa(lp21
F0.9851623431945075
aF-0.054276764198874186
aF0.0
aF100.0
aaa(lp22
(lp23
F0.1981591841422707
aF0.6211913298833874
aF0.0
aF10.0
aa(lp24
F0.9801840815857732
aF-0.06211913298833876
aF0.0
aF100.0
aaa(lp25
(lp26
F0.25375147057361985
aF0.694538697900146
aF0.0
aF10.0
aa(lp27
F0.9746248529426383
aF-0.06945386979001462
aF0.0
aF100.0
aaa(lp28
(lp29
F0.3145294273888254
aF0.7623902136234858
aF0.0
aF10.0
aa(lp30
F0.9685470572611179
aF-0.07623902136234861
aF0.0
aF100.0
aaa(lp31
(lp32
F0.3798501048902077
aF0.8244167206623553
aF0.0
aF10.0
aa(lp33
F0.9620149895109797
aF-0.08244167206623558
aF0.0
aF100.0
aaa(lp34
(lp35
F0.449066138243272
aF0.8803752970511937
aF0.0
aF10.0
aa(lp36
F0.9550933861756734
aF-0.08803752970511944
aF0.0
aF100.0
aaa.